target datalayout = "e-m:e-p270:32:32-p271:32:32-p272:64:64-i64:64-i128:128-f80:128-n8:16:32:64-S128"
target triple = "x86_64-pc-linux-gnu"

%struct.Vec_Ptr_t_ = type { i32, i32, ptr }
%struct.Saig_MvMan_t_ = type { ptr, i32, i32, i32, i32, ptr, ptr, ptr, ptr, ptr, i32, ptr, ptr, ptr, ptr, ptr, i32, [9 x i32], ptr, i32, i32, i32, ptr, i32, ptr }
%struct.Vec_Int_t_ = type { i32, i32, ptr }

; Function Attrs: inlinehint nounwind uwtable
define internal void @Vec_IntFreeP(ptr noundef %0) #2 {
  %2 = alloca ptr, align 8
  store ptr %0, ptr %2, align 8, !tbaa !81
  %3 = load ptr, ptr %2, align 8, !tbaa !81
  %4 = load ptr, ptr %3, align 8, !tbaa !83
  %5 = icmp eq ptr %4, null
  br i1 %5, label %6, label %7

6:                                                ; preds = %1
  br label %32

7:                                                ; preds = %1
  %8 = load ptr, ptr %2, align 8, !tbaa !81
  %9 = load ptr, ptr %8, align 8, !tbaa !83
  %10 = getelementptr inbounds nuw %struct.Vec_Int_t_, ptr %9, i32 0, i32 2
  %11 = load ptr, ptr %10, align 8, !tbaa !84
  %12 = icmp ne ptr %11, null
  br i1 %12, label %13, label %21

13:                                               ; preds = %7
  %14 = load ptr, ptr %2, align 8, !tbaa !81
  %15 = load ptr, ptr %14, align 8, !tbaa !83
  %16 = getelementptr inbounds nuw %struct.Vec_Int_t_, ptr %15, i32 0, i32 2
  %17 = load ptr, ptr %16, align 8, !tbaa !84
  call void @free(ptr noundef %17) #11
  %18 = load ptr, ptr %2, align 8, !tbaa !81
  %19 = load ptr, ptr %18, align 8, !tbaa !83
  %20 = getelementptr inbounds nuw %struct.Vec_Int_t_, ptr %19, i32 0, i32 2
  store ptr null, ptr %20, align 8, !tbaa !84
  br label %22

21:                                               ; preds = %7
  br label %22

22:                                               ; preds = %21, %13
  %23 = load ptr, ptr %2, align 8, !tbaa !81
  %24 = load ptr, ptr %23, align 8, !tbaa !83
  %25 = icmp ne ptr %24, null
  br i1 %25, label %26, label %30

26:                                               ; preds = %22
  %27 = load ptr, ptr %2, align 8, !tbaa !81
  %28 = load ptr, ptr %27, align 8, !tbaa !83
  call void @free(ptr noundef %28) #11
  %29 = load ptr, ptr %2, align 8, !tbaa !81
  store ptr null, ptr %29, align 8, !tbaa !83
  br label %31

30:                                               ; preds = %22
  br label %31

31:                                               ; preds = %30, %26
  br label %32

32:                                               ; preds = %31, %6
  ret void
}

; Function Attrs: inlinehint nounwind uwtable
define internal void @Vec_PtrFree(ptr noundef %0) #2 {
  %2 = alloca ptr, align 8
  store ptr %0, ptr %2, align 8, !tbaa !10
  %3 = load ptr, ptr %2, align 8, !tbaa !10
  %4 = getelementptr inbounds nuw %struct.Vec_Ptr_t_, ptr %3, i32 0, i32 2
  %5 = load ptr, ptr %4, align 8, !tbaa !38
  %6 = icmp ne ptr %5, null
  br i1 %6, label %7, label %13

7:                                                ; preds = %1
  %8 = load ptr, ptr %2, align 8, !tbaa !10
  %9 = getelementptr inbounds nuw %struct.Vec_Ptr_t_, ptr %8, i32 0, i32 2
  %10 = load ptr, ptr %9, align 8, !tbaa !38
  call void @free(ptr noundef %10) #11
  %11 = load ptr, ptr %2, align 8, !tbaa !10
  %12 = getelementptr inbounds nuw %struct.Vec_Ptr_t_, ptr %11, i32 0, i32 2
  store ptr null, ptr %12, align 8, !tbaa !38
  br label %14

13:                                               ; preds = %1
  br label %14

14:                                               ; preds = %13, %7
  %15 = load ptr, ptr %2, align 8, !tbaa !10
  %16 = icmp ne ptr %15, null
  br i1 %16, label %17, label %19

17:                                               ; preds = %14
  %18 = load ptr, ptr %2, align 8, !tbaa !10
  call void @free(ptr noundef %18) #11
  store ptr null, ptr %2, align 8, !tbaa !10
  br label %20

19:                                               ; preds = %14
  br label %20

20:                                               ; preds = %19, %17
  ret void
}

; Function Attrs: nounwind uwtable
define void @Saig_MvManStop(ptr noundef %0) #0 {
  %2 = alloca ptr, align 8
  store ptr %0, ptr %2, align 8, !tbaa !44
  %3 = load ptr, ptr %2, align 8, !tbaa !44
  %4 = getelementptr inbounds nuw %struct.Saig_MvMan_t_, ptr %3, i32 0, i32 11
  %5 = load ptr, ptr %4, align 8, !tbaa !57
  call void @Aig_MmFixedStop(ptr noundef %5, i32 noundef 0)
  %6 = load ptr, ptr %2, align 8, !tbaa !44
  %7 = getelementptr inbounds nuw %struct.Saig_MvMan_t_, ptr %6, i32 0, i32 12
  %8 = load ptr, ptr %7, align 8, !tbaa !58
  call void @Vec_PtrFree(ptr noundef %8)
  %9 = load ptr, ptr %2, align 8, !tbaa !44
  %10 = getelementptr inbounds nuw %struct.Saig_MvMan_t_, ptr %9, i32 0, i32 7
  call void @Vec_IntFreeP(ptr noundef %10)
  %11 = load ptr, ptr %2, align 8, !tbaa !44
  %12 = getelementptr inbounds nuw %struct.Saig_MvMan_t_, ptr %11, i32 0, i32 6
  %13 = load ptr, ptr %12, align 8, !tbaa !80
  call void @Vec_PtrFree(ptr noundef %13)
  %14 = load ptr, ptr %2, align 8, !tbaa !44
  %15 = getelementptr inbounds nuw %struct.Saig_MvMan_t_, ptr %14, i32 0, i32 8
  %16 = load ptr, ptr %15, align 8, !tbaa !64
  call void @Vec_PtrFree(ptr noundef %16)
  %17 = load ptr, ptr %2, align 8, !tbaa !44
  %18 = getelementptr inbounds nuw %struct.Saig_MvMan_t_, ptr %17, i32 0, i32 14
  %19 = load ptr, ptr %18, align 8, !tbaa !60
  %20 = getelementptr inbounds ptr, ptr %19, i64 0
  %21 = load ptr, ptr %20, align 8, !tbaa !61
  %22 = icmp ne ptr %21, null
  br i1 %22, label %23, label %33

23:                                               ; preds = %1
  %24 = load ptr, ptr %2, align 8, !tbaa !44
  %25 = getelementptr inbounds nuw %struct.Saig_MvMan_t_, ptr %24, i32 0, i32 14
  %26 = load ptr, ptr %25, align 8, !tbaa !60
  %27 = getelementptr inbounds ptr, ptr %26, i64 0
  %28 = load ptr, ptr %27, align 8, !tbaa !61
  call void @free(ptr noundef %28) #11
  %29 = load ptr, ptr %2, align 8, !tbaa !44
  %30 = getelementptr inbounds nuw %struct.Saig_MvMan_t_, ptr %29, i32 0, i32 14
  %31 = load ptr, ptr %30, align 8, !tbaa !60
  %32 = getelementptr inbounds ptr, ptr %31, i64 0
  store ptr null, ptr %32, align 8, !tbaa !61
  br label %34

33:                                               ; preds = %1
  br label %34

34:                                               ; preds = %33, %23
  %35 = load ptr, ptr %2, align 8, !tbaa !44
  %36 = getelementptr inbounds nuw %struct.Saig_MvMan_t_, ptr %35, i32 0, i32 14
  %37 = load ptr, ptr %36, align 8, !tbaa !60
  %38 = icmp ne ptr %37, null
  br i1 %38, label %39, label %45

39:                                               ; preds = %34
  %40 = load ptr, ptr %2, align 8, !tbaa !44
  %41 = getelementptr inbounds nuw %struct.Saig_MvMan_t_, ptr %40, i32 0, i32 14
  %42 = load ptr, ptr %41, align 8, !tbaa !60
  call void @free(ptr noundef %42) #11
  %43 = load ptr, ptr %2, align 8, !tbaa !44
  %44 = getelementptr inbounds nuw %struct.Saig_MvMan_t_, ptr %43, i32 0, i32 14
  store ptr null, ptr %44, align 8, !tbaa !60
  br label %46

45:                                               ; preds = %34
  br label %46

46:                                               ; preds = %45, %39
  %47 = load ptr, ptr %2, align 8, !tbaa !44
  %48 = getelementptr inbounds nuw %struct.Saig_MvMan_t_, ptr %47, i32 0, i32 15
  %49 = load ptr, ptr %48, align 8, !tbaa !63
  %50 = icmp ne ptr %49, null
  br i1 %50, label %51, label %57

51:                                               ; preds = %46
  %52 = load ptr, ptr %2, align 8, !tbaa !44
  %53 = getelementptr inbounds nuw %struct.Saig_MvMan_t_, ptr %52, i32 0, i32 15
  %54 = load ptr, ptr %53, align 8, !tbaa !63
  call void @free(ptr noundef %54) #11
  %55 = load ptr, ptr %2, align 8, !tbaa !44
  %56 = getelementptr inbounds nuw %struct.Saig_MvMan_t_, ptr %55, i32 0, i32 15
  store ptr null, ptr %56, align 8, !tbaa !63
  br label %58

57:                                               ; preds = %46
  br label %58

58:                                               ; preds = %57, %51
  %59 = load ptr, ptr %2, align 8, !tbaa !44
  %60 = getelementptr inbounds nuw %struct.Saig_MvMan_t_, ptr %59, i32 0, i32 13
  %61 = load ptr, ptr %60, align 8, !tbaa !59
  %62 = icmp ne ptr %61, null
  br i1 %62, label %63, label %69

63:                                               ; preds = %58
  %64 = load ptr, ptr %2, align 8, !tbaa !44
  %65 = getelementptr inbounds nuw %struct.Saig_MvMan_t_, ptr %64, i32 0, i32 13
  %66 = load ptr, ptr %65, align 8, !tbaa !59
  call void @free(ptr noundef %66) #11
  %67 = load ptr, ptr %2, align 8, !tbaa !44
  %68 = getelementptr inbounds nuw %struct.Saig_MvMan_t_, ptr %67, i32 0, i32 13
  store ptr null, ptr %68, align 8, !tbaa !59
  br label %70

69:                                               ; preds = %58
  br label %70

70:                                               ; preds = %69, %63
  %71 = load ptr, ptr %2, align 8, !tbaa !44
  %72 = getelementptr inbounds nuw %struct.Saig_MvMan_t_, ptr %71, i32 0, i32 5
  %73 = load ptr, ptr %72, align 8, !tbaa !54
  %74 = icmp ne ptr %73, null
  br i1 %74, label %75, label %81

75:                                               ; preds = %70
  %76 = load ptr, ptr %2, align 8, !tbaa !44
  %77 = getelementptr inbounds nuw %struct.Saig_MvMan_t_, ptr %76, i32 0, i32 5
  %78 = load ptr, ptr %77, align 8, !tbaa !54
  call void @free(ptr noundef %78) #11
  %79 = load ptr, ptr %2, align 8, !tbaa !44
  %80 = getelementptr inbounds nuw %struct.Saig_MvMan_t_, ptr %79, i32 0, i32 5
  store ptr null, ptr %80, align 8, !tbaa !54
  br label %82

81:                                               ; preds = %70
  br label %82

82:                                               ; preds = %81, %75
  %83 = load ptr, ptr %2, align 8, !tbaa !44
  %84 = getelementptr inbounds nuw %struct.Saig_MvMan_t_, ptr %83, i32 0, i32 9
  %85 = load ptr, ptr %84, align 8, !tbaa !56
  %86 = icmp ne ptr %85, null
  br i1 %86, label %87, label %93

87:                                               ; preds = %82
  %88 = load ptr, ptr %2, align 8, !tbaa !44
  %89 = getelementptr inbounds nuw %struct.Saig_MvMan_t_, ptr %88, i32 0, i32 9
  %90 = load ptr, ptr %89, align 8, !tbaa !56
  call void @free(ptr noundef %90) #11
  %91 = load ptr, ptr %2, align 8, !tbaa !44
  %92 = getelementptr inbounds nuw %struct.Saig_MvMan_t_, ptr %91, i32 0, i32 9
  store ptr null, ptr %92, align 8, !tbaa !56
  br label %94

93:                                               ; preds = %82
  br label %94

94:                                               ; preds = %93, %87
  %95 = load ptr, ptr %2, align 8, !tbaa !44
  %96 = getelementptr inbounds nuw %struct.Saig_MvMan_t_, ptr %95, i32 0, i32 18
  %97 = load ptr, ptr %96, align 8, !tbaa !66
  %98 = icmp ne ptr %97, null
  br i1 %98, label %99, label %105

99:                                               ; preds = %94
  %100 = load ptr, ptr %2, align 8, !tbaa !44
  %101 = getelementptr inbounds nuw %struct.Saig_MvMan_t_, ptr %100, i32 0, i32 18
  %102 = load ptr, ptr %101, align 8, !tbaa !66
  call void @free(ptr noundef %102) #11
  %103 = load ptr, ptr %2, align 8, !tbaa !44
  %104 = getelementptr inbounds nuw %struct.Saig_MvMan_t_, ptr %103, i32 0, i32 18
  store ptr null, ptr %104, align 8, !tbaa !66
  br label %106

105:                                              ; preds = %94
  br label %106

106:                                              ; preds = %105, %99
  %107 = load ptr, ptr %2, align 8, !tbaa !44
  %108 = getelementptr inbounds nuw %struct.Saig_MvMan_t_, ptr %107, i32 0, i32 22
  %109 = load ptr, ptr %108, align 8, !tbaa !68
  %110 = icmp ne ptr %109, null
  br i1 %110, label %111, label %117

111:                                              ; preds = %106
  %112 = load ptr, ptr %2, align 8, !tbaa !44
  %113 = getelementptr inbounds nuw %struct.Saig_MvMan_t_, ptr %112, i32 0, i32 22
  %114 = load ptr, ptr %113, align 8, !tbaa !68
  call void @free(ptr noundef %114) #11
  %115 = load ptr, ptr %2, align 8, !tbaa !44
  %116 = getelementptr inbounds nuw %struct.Saig_MvMan_t_, ptr %115, i32 0, i32 22
  store ptr null, ptr %116, align 8, !tbaa !68
  br label %118

117:                                              ; preds = %106
  br label %118

118:                                              ; preds = %117, %111
  %119 = load ptr, ptr %2, align 8, !tbaa !44
  %120 = getelementptr inbounds nuw %struct.Saig_MvMan_t_, ptr %119, i32 0, i32 24
  %121 = load ptr, ptr %120, align 8, !tbaa !69
  %122 = icmp ne ptr %121, null
  br i1 %122, label %123, label %129

123:                                              ; preds = %118
  %124 = load ptr, ptr %2, align 8, !tbaa !44
  %125 = getelementptr inbounds nuw %struct.Saig_MvMan_t_, ptr %124, i32 0, i32 24
  %126 = load ptr, ptr %125, align 8, !tbaa !69
  call void @free(ptr noundef %126) #11
  %127 = load ptr, ptr %2, align 8, !tbaa !44
  %128 = getelementptr inbounds nuw %struct.Saig_MvMan_t_, ptr %127, i32 0, i32 24
  store ptr null, ptr %128, align 8, !tbaa !69
  br label %130

129:                                              ; preds = %118
  br label %130

130:                                              ; preds = %129, %123
  %131 = load ptr, ptr %2, align 8, !tbaa !44
  %132 = icmp ne ptr %131, null
  br i1 %132, label %133, label %135

133:                                              ; preds = %130
  %134 = load ptr, ptr %2, align 8, !tbaa !44
  call void @free(ptr noundef %134) #11
  store ptr null, ptr %2, align 8, !tbaa !44
  br label %136

135:                                              ; preds = %130
  br label %136

136:                                              ; preds = %135, %133
  ret void
}