; Function Attrs: nounwind uwtable
define void @Saig_MvManStop(ptr noundef captures(none) %0) local_unnamed_addr #0 {
  %2 = getelementptr inbounds nuw i8, ptr %0, i64 72
  %3 = load ptr, ptr %2, align 8, !tbaa !54
  tail call void @Aig_MmFixedStop(ptr noundef %3, i32 noundef 0) #22
  %4 = getelementptr inbounds nuw i8, ptr %0, i64 80
  %5 = load ptr, ptr %4, align 8, !tbaa !55
  %6 = getelementptr inbounds nuw i8, ptr %5, i64 8
  %7 = load ptr, ptr %6, align 8, !tbaa !24
  %.not.i = icmp eq ptr %7, null
  br i1 %.not.i, label %Vec_PtrFree.exit, label %8

8:                                                ; preds = %1
  tail call void @free(ptr noundef nonnull %7) #22
  br label %Vec_PtrFree.exit

Vec_PtrFree.exit:                                 ; preds = %1, %8
  tail call void @free(ptr noundef nonnull %5) #22
  %9 = getelementptr inbounds nuw i8, ptr %0, i64 40
  %10 = load ptr, ptr %9, align 8, !tbaa !73
  %11 = icmp eq ptr %10, null
  br i1 %11, label %Vec_IntFreeP.exit, label %12

12:                                               ; preds = %Vec_PtrFree.exit
  %13 = getelementptr inbounds nuw i8, ptr %10, i64 8
  %14 = load ptr, ptr %13, align 8, !tbaa !74
  %.not.i52 = icmp eq ptr %14, null
  br i1 %.not.i52, label %17, label %.thread.i

.thread.i:                                        ; preds = %12
  tail call void @free(ptr noundef nonnull %14) #22
  %15 = load ptr, ptr %9, align 8, !tbaa !73
  %16 = getelementptr inbounds nuw i8, ptr %15, i64 8
  store ptr null, ptr %16, align 8, !tbaa !74
  br label %17

17:                                               ; preds = %.thread.i, %12
  %18 = phi ptr [ %15, %.thread.i ], [ %10, %12 ]
  tail call void @free(ptr noundef nonnull %18) #22
  store ptr null, ptr %9, align 8, !tbaa !73
  br label %Vec_IntFreeP.exit

Vec_IntFreeP.exit:                                ; preds = %Vec_PtrFree.exit, %17
  %19 = getelementptr inbounds nuw i8, ptr %0, i64 32
  %20 = load ptr, ptr %19, align 8, !tbaa !76
  %21 = getelementptr inbounds nuw i8, ptr %20, i64 8
  %22 = load ptr, ptr %21, align 8, !tbaa !24
  %.not.i53 = icmp eq ptr %22, null
  br i1 %.not.i53, label %Vec_PtrFree.exit54, label %23

23:                                               ; preds = %Vec_IntFreeP.exit
  tail call void @free(ptr noundef nonnull %22) #22
  br label %Vec_PtrFree.exit54

Vec_PtrFree.exit54:                               ; preds = %Vec_IntFreeP.exit, %23
  tail call void @free(ptr noundef nonnull %20) #22
  %24 = getelementptr inbounds nuw i8, ptr %0, i64 48
  %25 = load ptr, ptr %24, align 8, !tbaa !61
  %26 = getelementptr inbounds nuw i8, ptr %25, i64 8
  %27 = load ptr, ptr %26, align 8, !tbaa !24
  %.not.i55 = icmp eq ptr %27, null
  br i1 %.not.i55, label %Vec_PtrFree.exit56, label %28

28:                                               ; preds = %Vec_PtrFree.exit54
  tail call void @free(ptr noundef nonnull %27) #22
  br label %Vec_PtrFree.exit56

Vec_PtrFree.exit56:                               ; preds = %Vec_PtrFree.exit54, %28
  tail call void @free(ptr noundef nonnull %25) #22
  %29 = getelementptr inbounds nuw i8, ptr %0, i64 96
  %30 = load ptr, ptr %29, align 8, !tbaa !57
  %31 = load ptr, ptr %30, align 8, !tbaa !58
  %.not = icmp eq ptr %31, null
  br i1 %.not, label %33, label %.thread

.thread:                                          ; preds = %Vec_PtrFree.exit56
  tail call void @free(ptr noundef nonnull %31) #22
  %32 = load ptr, ptr %29, align 8, !tbaa !57
  store ptr null, ptr %32, align 8, !tbaa !58
  br label %33

33:                                               ; preds = %Vec_PtrFree.exit56, %.thread
  %34 = phi ptr [ %32, %.thread ], [ %30, %Vec_PtrFree.exit56 ]
  tail call void @free(ptr noundef nonnull %34) #22
  store ptr null, ptr %29, align 8, !tbaa !57
  %35 = getelementptr inbounds nuw i8, ptr %0, i64 104
  %36 = load ptr, ptr %35, align 8, !tbaa !60
  %.not44 = icmp eq ptr %36, null
  br i1 %.not44, label %38, label %37

37:                                               ; preds = %33
  tail call void @free(ptr noundef nonnull %36) #22
  store ptr null, ptr %35, align 8, !tbaa !60
  br label %38

38:                                               ; preds = %33, %37
  %39 = getelementptr inbounds nuw i8, ptr %0, i64 88
  %40 = load ptr, ptr %39, align 8, !tbaa !56
  %.not45 = icmp eq ptr %40, null
  br i1 %.not45, label %42, label %41

41:                                               ; preds = %38
  tail call void @free(ptr noundef nonnull %40) #22
  store ptr null, ptr %39, align 8, !tbaa !56
  br label %42

42:                                               ; preds = %38, %41
  %43 = getelementptr inbounds nuw i8, ptr %0, i64 24
  %44 = load ptr, ptr %43, align 8, !tbaa !49
  %.not46 = icmp eq ptr %44, null
  br i1 %.not46, label %46, label %45

45:                                               ; preds = %42
  tail call void @free(ptr noundef nonnull %44) #22
  store ptr null, ptr %43, align 8, !tbaa !49
  br label %46

46:                                               ; preds = %42, %45
  %47 = getelementptr inbounds nuw i8, ptr %0, i64 56
  %48 = load ptr, ptr %47, align 8, !tbaa !53
  %.not47 = icmp eq ptr %48, null
  br i1 %.not47, label %50, label %49

49:                                               ; preds = %46
  tail call void @free(ptr noundef nonnull %48) #22
  store ptr null, ptr %47, align 8, !tbaa !53
  br label %50

50:                                               ; preds = %46, %49
  %51 = getelementptr inbounds nuw i8, ptr %0, i64 152
  %52 = load ptr, ptr %51, align 8, !tbaa !63
  %.not48 = icmp eq ptr %52, null
  br i1 %.not48, label %54, label %53

53:                                               ; preds = %50
  tail call void @free(ptr noundef nonnull %52) #22
  store ptr null, ptr %51, align 8, !tbaa !63
  br label %54

54:                                               ; preds = %50, %53
  %55 = getelementptr inbounds nuw i8, ptr %0, i64 176
  %56 = load ptr, ptr %55, align 8, !tbaa !65
  %.not49 = icmp eq ptr %56, null
  br i1 %.not49, label %58, label %57

57:                                               ; preds = %54
  tail call void @free(ptr noundef nonnull %56) #22
  store ptr null, ptr %55, align 8, !tbaa !65
  br label %58

58:                                               ; preds = %54, %57
  %59 = getelementptr inbounds nuw i8, ptr %0, i64 192
  %60 = load ptr, ptr %59, align 8, !tbaa !66
  %.not50 = icmp eq ptr %60, null
  br i1 %.not50, label %62, label %61

61:                                               ; preds = %58
  tail call void @free(ptr noundef nonnull %60) #22
  br label %62

62:                                               ; preds = %58, %61
  tail call void @free(ptr noundef nonnull %0) #22
  ret void
}